; Function Attrs: mustprogress uwtable
define noundef nonnull align 8 dereferenceable(60) ptr @_ZN6icu_7710CharString20appendInvariantCharsERKNS_13UnicodeStringER10UErrorCode(ptr noundef nonnull returned align 8 dereferenceable(60) %0, ptr noundef nonnull align 8 dereferenceable(64) %1, ptr noundef nonnull align 4 captures(none) dereferenceable(4) %2) local_unnamed_addr #1 align 2 {
  %4 = getelementptr inbounds nuw i8, ptr %1, i64 8
  %5 = load i16, ptr %4, align 8, !tbaa !17
  %6 = and i16 %5, 17
  %.not.i = icmp eq i16 %6, 0
  br i1 %.not.i, label %7, label %_ZNK6icu_7713UnicodeString9getBufferEv.exit

7:                                                ; preds = %3
  %8 = and i16 %5, 2
  %.not2.i = icmp eq i16 %8, 0
  br i1 %.not2.i, label %11, label %9

9:                                                ; preds = %7
  %10 = getelementptr inbounds nuw i8, ptr %1, i64 10
  br label %_ZNK6icu_7713UnicodeString9getBufferEv.exit

11:                                               ; preds = %7
  %12 = getelementptr inbounds nuw i8, ptr %1, i64 24
  %13 = load ptr, ptr %12, align 8, !tbaa !17
  br label %_ZNK6icu_7713UnicodeString9getBufferEv.exit

_ZNK6icu_7713UnicodeString9getBufferEv.exit:      ; preds = %3, %9, %11
  %.0.i = phi ptr [ %10, %9 ], [ %13, %11 ], [ null, %3 ]
  %14 = icmp slt i16 %5, 0
  %15 = ashr i16 %5, 5
  %16 = sext i16 %15 to i32
  %17 = getelementptr inbounds nuw i8, ptr %1, i64 12
  %18 = load i32, ptr %17, align 4
  %19 = select i1 %14, i32 %18, i32 %16
  %20 = load i32, ptr %2, align 4, !tbaa !13
  %21 = icmp slt i32 %20, 1
  br i1 %21, label %22, label %_ZN6icu_7710CharString20appendInvariantCharsEPKDsiR10UErrorCode.exit

22:                                               ; preds = %_ZNK6icu_7713UnicodeString9getBufferEv.exit
  %23 = tail call signext i8 @uprv_isInvariantUString_77(ptr noundef %.0.i, i32 noundef %19)
  %.not10.i = icmp eq i8 %23, 0
  br i1 %.not10.i, label %24, label %25

24:                                               ; preds = %22
  store i32 26, ptr %2, align 4, !tbaa !13
  br label %_ZN6icu_7710CharString20appendInvariantCharsEPKDsiR10UErrorCode.exit

25:                                               ; preds = %22
  %26 = getelementptr inbounds nuw i8, ptr %0, i64 56
  %27 = load i32, ptr %26, align 8, !tbaa !15
  %28 = add i32 %19, 1
  %29 = add i32 %28, %27
  %30 = tail call noundef signext i8 @_ZN6icu_7710CharString14ensureCapacityEiiR10UErrorCode(ptr noundef nonnull align 8 dereferenceable(60) %0, i32 noundef %29, i32 noundef 0, ptr noundef nonnull align 4 dereferenceable(4) %2)
  %.not11.i = icmp eq i8 %30, 0
  br i1 %.not11.i, label %_ZN6icu_7710CharString20appendInvariantCharsEPKDsiR10UErrorCode.exit, label %31

31:                                               ; preds = %25
  %32 = load ptr, ptr %0, align 8, !tbaa !3
  %33 = load i32, ptr %26, align 8, !tbaa !15
  %34 = sext i32 %33 to i64
  %35 = getelementptr inbounds i8, ptr %32, i64 %34
  tail call void @u_UCharsToChars_77(ptr noundef %.0.i, ptr noundef %35, i32 noundef %19)
  %36 = load i32, ptr %26, align 8, !tbaa !15
  %37 = add nsw i32 %36, %19
  store i32 %37, ptr %26, align 8, !tbaa !15
  %38 = sext i32 %37 to i64
  %39 = load ptr, ptr %0, align 8, !tbaa !3
  %40 = getelementptr inbounds i8, ptr %39, i64 %38
  store i8 0, ptr %40, align 1, !tbaa !17
  br label %_ZN6icu_7710CharString20appendInvariantCharsEPKDsiR10UErrorCode.exit

_ZN6icu_7710CharString20appendInvariantCharsEPKDsiR10UErrorCode.exit: ; preds = %_ZNK6icu_7713UnicodeString9getBufferEv.exit, %24, %25, %31
  ret ptr %0
}